; Function Attrs: inlinehint mustprogress nounwind uwtable
define internal fastcc void @"_ZZZN2tf26make_transform_reduce_taskIN9__gnu_cxx17__normal_iteratorIP4DataSt6vectorIS3_SaIS3_EEEES8_iZ16transform_reducemE3$_0Z16transform_reducemE3$_1NS_17GuidedPartitionerINS_21DefaultClosureWrapperEEEEEDaT_T0_RT1_T2_T3_T4_ENUlRNS_7RuntimeEE_clESM_ENUlvE0_D2Ev"(ptr noundef nonnull readonly align 8 captures(none) dereferenceable(88) %0) unnamed_addr #8 align 2 personality ptr @__gxx_personality_v0 {
  %2 = getelementptr inbounds nuw i8, ptr %0, i64 48
  %3 = load ptr, ptr %2, align 8, !tbaa !47
  %.not.i.i = icmp eq ptr %3, null
  br i1 %.not.i.i, label %_ZNSt12__shared_ptrISt5mutexLN9__gnu_cxx12_Lock_policyE2EED2Ev.exit, label %4

4:                                                ; preds = %1
  %5 = getelementptr inbounds nuw i8, ptr %3, i64 8
  %6 = load atomic i64, ptr %5 acquire, align 8
  %7 = icmp eq i64 %6, 4294967297
  %8 = trunc i64 %6 to i32
  br i1 %7, label %9, label %17

9:                                                ; preds = %4
  store i32 0, ptr %5, align 8, !tbaa !50
  %10 = getelementptr inbounds nuw i8, ptr %3, i64 12
  store i32 0, ptr %10, align 4, !tbaa !52
  %11 = load ptr, ptr %3, align 8, !tbaa !4
  %12 = getelementptr inbounds nuw i8, ptr %11, i64 16
  %13 = load ptr, ptr %12, align 8
  tail call void %13(ptr noundef nonnull align 8 dereferenceable(16) %3) #34
  %14 = load ptr, ptr %3, align 8, !tbaa !4
  %15 = getelementptr inbounds nuw i8, ptr %14, i64 24
  %16 = load ptr, ptr %15, align 8
  tail call void %16(ptr noundef nonnull align 8 dereferenceable(16) %3) #34
  br label %_ZNSt12__shared_ptrISt5mutexLN9__gnu_cxx12_Lock_policyE2EED2Ev.exit

17:                                               ; preds = %4
  %18 = load i8, ptr @__libc_single_threaded, align 1, !tbaa !33
  %.not.i.i.i = icmp eq i8 %18, 0
  br i1 %.not.i.i.i, label %21, label %19

19:                                               ; preds = %17
  %20 = add nsw i32 %8, -1
  store i32 %20, ptr %5, align 4, !tbaa !34
  br label %_ZN9__gnu_cxx27__exchange_and_add_dispatchEPii.exit.i.i.i

21:                                               ; preds = %17
  %22 = atomicrmw volatile add ptr %5, i32 -1 acq_rel, align 4
  br label %_ZN9__gnu_cxx27__exchange_and_add_dispatchEPii.exit.i.i.i

_ZN9__gnu_cxx27__exchange_and_add_dispatchEPii.exit.i.i.i: ; preds = %21, %19
  %.0.i.i.i.i = phi i32 [ %8, %19 ], [ %22, %21 ]
  %23 = icmp eq i32 %.0.i.i.i.i, 1
  br i1 %23, label %24, label %_ZNSt12__shared_ptrISt5mutexLN9__gnu_cxx12_Lock_policyE2EED2Ev.exit, !prof !53

24:                                               ; preds = %_ZN9__gnu_cxx27__exchange_and_add_dispatchEPii.exit.i.i.i
  tail call void @_ZNSt16_Sp_counted_baseILN9__gnu_cxx12_Lock_policyE2EE24_M_release_last_use_coldEv(ptr noundef nonnull align 8 dereferenceable(16) %3) #34
  br label %_ZNSt12__shared_ptrISt5mutexLN9__gnu_cxx12_Lock_policyE2EED2Ev.exit

_ZNSt12__shared_ptrISt5mutexLN9__gnu_cxx12_Lock_policyE2EED2Ev.exit: ; preds = %1, %9, %_ZN9__gnu_cxx27__exchange_and_add_dispatchEPii.exit.i.i.i, %24
  %25 = getelementptr inbounds nuw i8, ptr %0, i64 16
  %26 = load ptr, ptr %25, align 8, !tbaa !47
  %.not.i.i1 = icmp eq ptr %26, null
  br i1 %.not.i.i1, label %_ZNSt12__shared_ptrISt6atomicImELN9__gnu_cxx12_Lock_policyE2EED2Ev.exit, label %27

27:                                               ; preds = %_ZNSt12__shared_ptrISt5mutexLN9__gnu_cxx12_Lock_policyE2EED2Ev.exit
  %28 = getelementptr inbounds nuw i8, ptr %26, i64 8
  %29 = load atomic i64, ptr %28 acquire, align 8
  %30 = icmp eq i64 %29, 4294967297
  %31 = trunc i64 %29 to i32
  br i1 %30, label %32, label %40

32:                                               ; preds = %27
  store i32 0, ptr %28, align 8, !tbaa !50
  %33 = getelementptr inbounds nuw i8, ptr %26, i64 12
  store i32 0, ptr %33, align 4, !tbaa !52
  %34 = load ptr, ptr %26, align 8, !tbaa !4
  %35 = getelementptr inbounds nuw i8, ptr %34, i64 16
  %36 = load ptr, ptr %35, align 8
  tail call void %36(ptr noundef nonnull align 8 dereferenceable(16) %26) #34
  %37 = load ptr, ptr %26, align 8, !tbaa !4
  %38 = getelementptr inbounds nuw i8, ptr %37, i64 24
  %39 = load ptr, ptr %38, align 8
  tail call void %39(ptr noundef nonnull align 8 dereferenceable(16) %26) #34
  br label %_ZNSt12__shared_ptrISt6atomicImELN9__gnu_cxx12_Lock_policyE2EED2Ev.exit

40:                                               ; preds = %27
  %41 = load i8, ptr @__libc_single_threaded, align 1, !tbaa !33
  %.not.i.i.i2 = icmp eq i8 %41, 0
  br i1 %.not.i.i.i2, label %44, label %42

42:                                               ; preds = %40
  %43 = add nsw i32 %31, -1
  store i32 %43, ptr %28, align 4, !tbaa !34
  br label %_ZN9__gnu_cxx27__exchange_and_add_dispatchEPii.exit.i.i.i3

44:                                               ; preds = %40
  %45 = atomicrmw volatile add ptr %28, i32 -1 acq_rel, align 4
  br label %_ZN9__gnu_cxx27__exchange_and_add_dispatchEPii.exit.i.i.i3

_ZN9__gnu_cxx27__exchange_and_add_dispatchEPii.exit.i.i.i3: ; preds = %44, %42
  %.0.i.i.i.i4 = phi i32 [ %31, %42 ], [ %45, %44 ]
  %46 = icmp eq i32 %.0.i.i.i.i4, 1
  br i1 %46, label %47, label %_ZNSt12__shared_ptrISt6atomicImELN9__gnu_cxx12_Lock_policyE2EED2Ev.exit, !prof !53

47:                                               ; preds = %_ZN9__gnu_cxx27__exchange_and_add_dispatchEPii.exit.i.i.i3
  tail call void @_ZNSt16_Sp_counted_baseILN9__gnu_cxx12_Lock_policyE2EE24_M_release_last_use_coldEv(ptr noundef nonnull align 8 dereferenceable(16) %26) #34
  br label %_ZNSt12__shared_ptrISt6atomicImELN9__gnu_cxx12_Lock_policyE2EED2Ev.exit

_ZNSt12__shared_ptrISt6atomicImELN9__gnu_cxx12_Lock_policyE2EED2Ev.exit: ; preds = %_ZNSt12__shared_ptrISt5mutexLN9__gnu_cxx12_Lock_policyE2EED2Ev.exit, %32, %_ZN9__gnu_cxx27__exchange_and_add_dispatchEPii.exit.i.i.i3, %47
  ret void
}